target datalayout = "e-m:e-p270:32:32-p271:32:32-p272:64:64-i64:64-i128:128-f80:128-n8:16:32:64-S128"
target triple = "x86_64-pc-linux-gnu"

%struct._GList = type { ptr, ptr, ptr }

@recent_cfilter_list = internal global ptr null, align 8
@per_interface_cfilter_lists_hash = internal global ptr null, align 8

; Function Attrs: null_pointer_is_valid sspstrong uwtable
define hidden void @recent_add_cfilter(ptr noundef %0, ptr noundef %1) #0 {
  %3 = alloca ptr, align 8
  %4 = alloca ptr, align 8
  %5 = alloca ptr, align 8
  %6 = alloca ptr, align 8
  %7 = alloca ptr, align 8
  %8 = alloca ptr, align 8
  %9 = alloca i32, align 4
  store ptr %0, ptr %3, align 8
  store ptr %1, ptr %4, align 8
  call void @llvm.lifetime.start.p0(i64 8, ptr %5) #13
  call void @llvm.lifetime.start.p0(i64 8, ptr %6) #13
  call void @llvm.lifetime.start.p0(i64 8, ptr %7) #13
  call void @llvm.lifetime.start.p0(i64 8, ptr %8) #13
  store ptr null, ptr %8, align 8
  %10 = load ptr, ptr %4, align 8
  %11 = getelementptr i8, ptr %10, i64 0
  %12 = load i8, ptr %11, align 1
  %13 = sext i8 %12 to i32
  %14 = icmp eq i32 %13, 0
  br i1 %14, label %15, label %16

15:                                               ; preds = %2
  store i32 1, ptr %9, align 4
  br label %76

16:                                               ; preds = %2
  %17 = load ptr, ptr %3, align 8
  %18 = icmp eq ptr %17, null
  br i1 %18, label %19, label %21

19:                                               ; preds = %16
  %20 = load ptr, ptr @recent_cfilter_list, align 8
  store ptr %20, ptr %5, align 8
  br label %30

21:                                               ; preds = %16
  %22 = load ptr, ptr @per_interface_cfilter_lists_hash, align 8
  %23 = icmp eq ptr %22, null
  br i1 %23, label %24, label %26

24:                                               ; preds = %21
  %25 = call ptr @g_hash_table_new_full(ptr noundef @g_str_hash, ptr noundef @g_str_equal, ptr noundef @g_free, ptr noundef null)
  store ptr %25, ptr @per_interface_cfilter_lists_hash, align 8
  br label %26

26:                                               ; preds = %24, %21
  %27 = load ptr, ptr @per_interface_cfilter_lists_hash, align 8
  %28 = load ptr, ptr %3, align 8
  %29 = call ptr @g_hash_table_lookup(ptr noundef %27, ptr noundef %28)
  store ptr %29, ptr %5, align 8
  br label %30

30:                                               ; preds = %26, %19
  %31 = load ptr, ptr %5, align 8
  %32 = call ptr @g_list_first(ptr noundef %31)
  store ptr %32, ptr %6, align 8
  br label %33

33:                                               ; preds = %51, %30
  %34 = load ptr, ptr %6, align 8
  %35 = icmp ne ptr %34, null
  br i1 %35, label %36, label %55

36:                                               ; preds = %33
  %37 = load ptr, ptr %6, align 8
  %38 = getelementptr inbounds nuw %struct._GList, ptr %37, i32 0, i32 0
  %39 = load ptr, ptr %38, align 8
  store ptr %39, ptr %7, align 8
  %40 = load ptr, ptr %4, align 8
  %41 = load ptr, ptr %7, align 8
  %42 = call i32 @strcmp(ptr noundef %40, ptr noundef %41) #16
  %43 = icmp eq i32 %42, 0
  br i1 %43, label %44, label %51

44:                                               ; preds = %36
  %45 = load ptr, ptr %7, align 8
  store ptr %45, ptr %8, align 8
  %46 = load ptr, ptr %5, align 8
  %47 = load ptr, ptr %6, align 8
  %48 = getelementptr inbounds nuw %struct._GList, ptr %47, i32 0, i32 0
  %49 = load ptr, ptr %48, align 8
  %50 = call ptr @g_list_remove(ptr noundef %46, ptr noundef %49)
  store ptr %50, ptr %5, align 8
  br label %55

51:                                               ; preds = %36
  %52 = load ptr, ptr %6, align 8
  %53 = getelementptr inbounds nuw %struct._GList, ptr %52, i32 0, i32 1
  %54 = load ptr, ptr %53, align 8
  store ptr %54, ptr %6, align 8
  br label %33, !llvm.loop !6

55:                                               ; preds = %44, %33
  %56 = load ptr, ptr %8, align 8
  %57 = icmp eq ptr %56, null
  br i1 %57, label %58, label %61

58:                                               ; preds = %55
  %59 = load ptr, ptr %4, align 8
  %60 = call noalias ptr @g_strdup(ptr noundef %59)
  store ptr %60, ptr %8, align 8
  br label %61

61:                                               ; preds = %58, %55
  %62 = load ptr, ptr %5, align 8
  %63 = load ptr, ptr %8, align 8
  %64 = call ptr @g_list_prepend(ptr noundef %62, ptr noundef %63)
  store ptr %64, ptr %5, align 8
  %65 = load ptr, ptr %3, align 8
  %66 = icmp eq ptr %65, null
  br i1 %66, label %67, label %69

67:                                               ; preds = %61
  %68 = load ptr, ptr %5, align 8
  store ptr %68, ptr @recent_cfilter_list, align 8
  br label %75

69:                                               ; preds = %61
  %70 = load ptr, ptr @per_interface_cfilter_lists_hash, align 8
  %71 = load ptr, ptr %3, align 8
  %72 = call noalias ptr @g_strdup(ptr noundef %71)
  %73 = load ptr, ptr %5, align 8
  %74 = call i32 @g_hash_table_insert(ptr noundef %70, ptr noundef %72, ptr noundef %73)
  br label %75

75:                                               ; preds = %69, %67
  store i32 0, ptr %9, align 4
  br label %76

76:                                               ; preds = %75, %15
  call void @llvm.lifetime.end.p0(i64 8, ptr %8) #13
  call void @llvm.lifetime.end.p0(i64 8, ptr %7) #13
  call void @llvm.lifetime.end.p0(i64 8, ptr %6) #13
  call void @llvm.lifetime.end.p0(i64 8, ptr %5) #13
  %77 = load i32, ptr %9, align 4
  switch i32 %77, label %79 [
    i32 0, label %78
    i32 1, label %78
  ]

78:                                               ; preds = %76, %76
  ret void

79:                                               ; preds = %76
  unreachable
}