; Function Attrs: null_pointer_is_valid sspstrong uwtable
define hidden void @recent_add_cfilter(ptr noundef %0, ptr noundef %1) local_unnamed_addr #0 {
  %3 = load i8, ptr %1, align 1
  %4 = icmp eq i8 %3, 0
  br i1 %4, label %36, label %5

5:                                                ; preds = %2
  %6 = icmp eq ptr %0, null
  br i1 %6, label %7, label %9

7:                                                ; preds = %5
  %8 = load ptr, ptr @recent_cfilter_list, align 8
  br label %17

9:                                                ; preds = %5
  %10 = load ptr, ptr @per_interface_cfilter_lists_hash, align 8
  %11 = icmp eq ptr %10, null
  br i1 %11, label %12, label %14

12:                                               ; preds = %9
  %13 = tail call ptr @g_hash_table_new_full(ptr noundef nonnull @g_str_hash, ptr noundef nonnull @g_str_equal, ptr noundef nonnull @g_free, ptr noundef null)
  store ptr %13, ptr @per_interface_cfilter_lists_hash, align 8
  br label %14

14:                                               ; preds = %12, %9
  %15 = phi ptr [ %13, %12 ], [ %10, %9 ]
  %16 = tail call ptr @g_hash_table_lookup(ptr noundef %15, ptr noundef nonnull %0)
  br label %17

17:                                               ; preds = %14, %7
  %.020 = phi ptr [ %8, %7 ], [ %16, %14 ]
  %18 = tail call ptr @g_list_first(ptr noundef %.020)
  %.not29 = icmp eq ptr %18, null
  br i1 %.not29, label %.thread, label %.lr.ph

.lr.ph:                                           ; preds = %17, %22
  %.02230 = phi ptr [ %24, %22 ], [ %18, %17 ]
  %19 = load ptr, ptr %.02230, align 8
  %20 = tail call i32 @strcmp(ptr noundef %1, ptr noundef %19) #13
  %21 = icmp eq i32 %20, 0
  br i1 %21, label %25, label %22

22:                                               ; preds = %.lr.ph
  %23 = getelementptr inbounds nuw i8, ptr %.02230, i64 8
  %24 = load ptr, ptr %23, align 8
  %.not = icmp eq ptr %24, null
  br i1 %.not, label %.thread, label %.lr.ph, !llvm.loop !6

25:                                               ; preds = %.lr.ph
  %26 = tail call ptr @g_list_remove(ptr noundef %.020, ptr noundef %19)
  %27 = icmp eq ptr %19, null
  br i1 %27, label %.thread, label %29

.thread:                                          ; preds = %22, %17, %25
  %.12128 = phi ptr [ %26, %25 ], [ %.020, %17 ], [ %.020, %22 ]
  %28 = tail call noalias ptr @g_strdup(ptr noundef %1)
  br label %29

29:                                               ; preds = %.thread, %25
  %.12127 = phi ptr [ %.12128, %.thread ], [ %26, %25 ]
  %.1 = phi ptr [ %28, %.thread ], [ %19, %25 ]
  %30 = tail call ptr @g_list_prepend(ptr noundef %.12127, ptr noundef %.1)
  br i1 %6, label %31, label %32

31:                                               ; preds = %29
  store ptr %30, ptr @recent_cfilter_list, align 8
  br label %36

32:                                               ; preds = %29
  %33 = load ptr, ptr @per_interface_cfilter_lists_hash, align 8
  %34 = tail call noalias ptr @g_strdup(ptr noundef nonnull %0)
  %35 = tail call i32 @g_hash_table_insert(ptr noundef %33, ptr noundef %34, ptr noundef %30)
  br label %36

36:                                               ; preds = %31, %32, %2
  ret void
}